; ModuleID = '62/3330.c'
source_filename = "62/3330.c"
target datalayout = "e-m:e-p270:32:32-p271:32:32-p272:64:64-i64:64-f80:128-n8:16:32:64-S128"
target triple = "x86_64-pc-linux-gnu"

@.str = private unnamed_addr constant [3 x i8] c"%c\00", align 1

; Function Attrs: noinline nounwind uwtable
define dso_local i32 @main() #0 {
  %1 = alloca i32, align 4
  %2 = alloca i8, align 1
  store i32 0, i32* %1, align 4
  br label %3

3:                                                ; preds = %27, %0
  %4 = call i32 @getchar()
  %5 = trunc i32 %4 to i8
  store i8 %5, i8* %2, align 1
  %6 = sext i8 %5 to i32
  %7 = icmp ne i32 %6, -1
  br i1 %7, label %8, label %28

8:                                                ; preds = %3
  %9 = load i8, i8* %2, align 1
  %10 = sext i8 %9 to i32
  %11 = call i32 (i8*, ...) @printf(i8* getelementptr inbounds ([3 x i8], [3 x i8]* @.str, i64 0, i64 0), i32 %10)
  %12 = load i8, i8* %2, align 1
  %13 = sext i8 %12 to i32
  %14 = icmp eq i32 %13, 32
  br i1 %14, label %15, label %27

15:                                               ; preds = %8
  br label %16

16:                                               ; preds = %21, %15
  %17 = call i32 @getchar()
  %18 = trunc i32 %17 to i8
  store i8 %18, i8* %2, align 1
  %19 = sext i8 %18 to i32
  %20 = icmp eq i32 %19, 32
  br i1 %20, label %21, label %22

21:                                               ; preds = %16
  br label %16

22:                                               ; preds = %16
  %23 = load i8, i8* %2, align 1
  %24 = sext i8 %23 to i32
  %25 = call i32 (i8*, ...) @printf(i8* getelementptr inbounds ([3 x i8], [3 x i8]* @.str, i64 0, i64 0), i32 %24)
  br label %26

26:                                               ; preds = %22
  br label %27

27:                                               ; preds = %26, %8
  br label %3

28:                                               ; preds = %3
  ret i32 0
}

declare dso_local i32 @getchar() #1

declare dso_local i32 @printf(i8*, ...) #1


!llvm.module.flags = !{!0}
!llvm.ident = !{!1}

!0 = !{i32 1, !"wchar_size", i32 4}
!1 = !{!"clang version 10.0.0-4ubuntu1 "}
