; ModuleID = 'source-C-CXX/61/3330.c'
source_filename = "source-C-CXX/61/3330.c"
target datalayout = "e-m:e-p270:32:32-p271:32:32-p272:64:64-i64:64-f80:128-n8:16:32:64-S128"
target triple = "x86_64-pc-linux-gnu"

%struct._IO_FILE = type { i32, i8*, i8*, i8*, i8*, i8*, i8*, i8*, i8*, i8*, i8*, i8*, %struct._IO_marker*, %struct._IO_FILE*, i32, i32, i64, i16, i8, [1 x i8], i8*, i64, %struct._IO_codecvt*, %struct._IO_wide_data*, %struct._IO_FILE*, i8*, i64, i32, [20 x i8] }
%struct._IO_marker = type opaque
%struct._IO_codecvt = type opaque
%struct._IO_wide_data = type opaque

@stdin = external local_unnamed_addr global %struct._IO_FILE*, align 8

; Function Attrs: nofree nounwind sspstrong uwtable
define dso_local i32 @main() local_unnamed_addr #0 {
  %1 = load %struct._IO_FILE*, %struct._IO_FILE** @stdin, align 8, !tbaa !5
  %2 = tail call i32 @getc(%struct._IO_FILE* %1) #3
  %3 = shl i32 %2, 24
  %4 = icmp eq i32 %3, -16777216
  br i1 %4, label %23, label %5

5:                                                ; preds = %0, %18
  %6 = phi i32 [ %21, %18 ], [ %3, %0 ]
  %7 = ashr exact i32 %6, 24
  %8 = tail call i32 @putchar(i32 %7)
  %9 = icmp eq i32 %6, 536870912
  br i1 %9, label %10, label %18

10:                                               ; preds = %5, %10
  %11 = load %struct._IO_FILE*, %struct._IO_FILE** @stdin, align 8, !tbaa !5
  %12 = tail call i32 @getc(%struct._IO_FILE* %11) #3
  %13 = shl i32 %12, 24
  %14 = icmp eq i32 %13, 536870912
  br i1 %14, label %10, label %15

15:                                               ; preds = %10
  %16 = ashr exact i32 %13, 24
  %17 = tail call i32 @putchar(i32 %16)
  br label %18

18:                                               ; preds = %15, %5
  %19 = load %struct._IO_FILE*, %struct._IO_FILE** @stdin, align 8, !tbaa !5
  %20 = tail call i32 @getc(%struct._IO_FILE* %19) #3
  %21 = shl i32 %20, 24
  %22 = icmp eq i32 %21, -16777216
  br i1 %22, label %23, label %5, !llvm.loop !9

23:                                               ; preds = %18, %0
  ret i32 0
}

; Function Attrs: nofree nounwind
declare noundef i32 @getc(%struct._IO_FILE* nocapture noundef) local_unnamed_addr #1

; Function Attrs: nofree nounwind
declare noundef i32 @putchar(i32 noundef) local_unnamed_addr #2


!llvm.module.flags = !{!0, !1, !2, !3}
!llvm.ident = !{!4}

!0 = !{i32 1, !"wchar_size", i32 4}
!1 = !{i32 7, !"PIC Level", i32 2}
!2 = !{i32 7, !"PIE Level", i32 2}
!3 = !{i32 7, !"uwtable", i32 1}
!4 = !{!"clang version 13.0.0"}
!5 = !{!6, !6, i64 0}
!6 = !{!"any pointer", !7, i64 0}
!7 = !{!"omnipotent char", !8, i64 0}
!8 = !{!"Simple C/C++ TBAA"}
!9 = distinct !{!9, !10}
!10 = !{!"llvm.loop.mustprogress"}
